target datalayout = "e-m:e-p270:32:32-p271:32:32-p272:64:64-i64:64-i128:128-f80:128-n8:16:32:64-S128"
target triple = "x86_64-pc-linux-gnu"

%"class.std::unique_ptr" = type { %"struct.std::__uniq_ptr_data" }
%"struct.std::__uniq_ptr_data" = type { %"class.std::__uniq_ptr_impl" }
%"class.std::__uniq_ptr_impl" = type { %"class.std::tuple" }
%"class.std::tuple" = type { %"struct.std::_Tuple_impl" }
%"struct.std::_Tuple_impl" = type { %"struct.std::_Head_base.2" }
%"struct.std::_Head_base.2" = type { ptr }
%"class.g2o::csparse::CSparse" = type { %"class.std::unique_ptr" }
%"class.g2o::csparse::CSparse::Impl" = type { ptr, i32, ptr, ptr, ptr, %"struct.g2o::csparse::CSparseExt" }
%"struct.g2o::csparse::CSparseExt" = type <{ %struct.cs_di_sparse, i32, [4 x i8] }>
%struct.cs_di_sparse = type { i32, i32, i32, ptr, ptr, ptr, i32 }
%struct.cs_di_symbolic = type { ptr, ptr, ptr, ptr, ptr, i32, double, double }

; Function Attrs: mustprogress nounwind uwtable
define linkonce_odr noundef nonnull align 8 dereferenceable(8) ptr @_ZNSt10_Head_baseILm0EPN3g2o7csparse7CSparse4ImplELb0EE7_M_headERKS5_(ptr noundef nonnull align 8 dereferenceable(8) %0) #1 comdat align 2 {
  %2 = alloca ptr, align 8
  store ptr %0, ptr %2, align 8, !tbaa !116
  %3 = load ptr, ptr %2, align 8, !tbaa !116
  %4 = getelementptr inbounds nuw %"struct.std::_Head_base.2", ptr %3, i32 0, i32 0
  ret ptr %4
}

; Function Attrs: mustprogress nounwind uwtable
define linkonce_odr noundef nonnull align 8 dereferenceable(8) ptr @_ZNSt11_Tuple_implILm0EJPN3g2o7csparse7CSparse4ImplESt14default_deleteIS3_EEE7_M_headERKS7_(ptr noundef nonnull align 8 dereferenceable(8) %0) #1 comdat align 2 {
  %2 = alloca ptr, align 8
  store ptr %0, ptr %2, align 8, !tbaa !112
  %3 = load ptr, ptr %2, align 8, !tbaa !112
  %4 = call noundef nonnull align 8 dereferenceable(8) ptr @_ZNSt10_Head_baseILm0EPN3g2o7csparse7CSparse4ImplELb0EE7_M_headERKS5_(ptr noundef nonnull align 8 dereferenceable(8) %3) #20
  ret ptr %4
}

; Function Attrs: mustprogress nounwind uwtable
define linkonce_odr noundef nonnull align 8 dereferenceable(8) ptr @_ZSt12__get_helperILm0EPN3g2o7csparse7CSparse4ImplEJSt14default_deleteIS3_EEERKT0_RKSt11_Tuple_implIXT_EJS7_DpT1_EE(ptr noundef nonnull align 8 dereferenceable(8) %0) #1 comdat {
  %2 = alloca ptr, align 8
  store ptr %0, ptr %2, align 8, !tbaa !112
  %3 = load ptr, ptr %2, align 8, !tbaa !112
  %4 = call noundef nonnull align 8 dereferenceable(8) ptr @_ZNSt11_Tuple_implILm0EJPN3g2o7csparse7CSparse4ImplESt14default_deleteIS3_EEE7_M_headERKS7_(ptr noundef nonnull align 8 dereferenceable(8) %3) #20
  ret ptr %4
}

; Function Attrs: mustprogress nounwind uwtable
define linkonce_odr noundef nonnull align 8 dereferenceable(8) ptr @_ZSt3getILm0EJPN3g2o7csparse7CSparse4ImplESt14default_deleteIS3_EEERKNSt13tuple_elementIXT_ESt5tupleIJDpT0_EEE4typeERKSB_(ptr noundef nonnull align 8 dereferenceable(8) %0) #1 comdat {
  %2 = alloca ptr, align 8
  store ptr %0, ptr %2, align 8, !tbaa !110
  %3 = load ptr, ptr %2, align 8, !tbaa !110
  %4 = call noundef nonnull align 8 dereferenceable(8) ptr @_ZSt12__get_helperILm0EPN3g2o7csparse7CSparse4ImplEJSt14default_deleteIS3_EEERKT0_RKSt11_Tuple_implIXT_EJS7_DpT1_EE(ptr noundef nonnull align 8 dereferenceable(8) %3) #20
  ret ptr %4
}

; Function Attrs: mustprogress nounwind uwtable
define linkonce_odr noundef ptr @_ZNKSt15__uniq_ptr_implIN3g2o7csparse7CSparse4ImplESt14default_deleteIS3_EE6_M_ptrEv(ptr noundef nonnull align 8 dereferenceable(8) %0) #1 comdat align 2 {
  %2 = alloca ptr, align 8
  store ptr %0, ptr %2, align 8, !tbaa !108
  %3 = load ptr, ptr %2, align 8
  %4 = getelementptr inbounds nuw %"class.std::__uniq_ptr_impl", ptr %3, i32 0, i32 0
  %5 = call noundef nonnull align 8 dereferenceable(8) ptr @_ZSt3getILm0EJPN3g2o7csparse7CSparse4ImplESt14default_deleteIS3_EEERKNSt13tuple_elementIXT_ESt5tupleIJDpT0_EEE4typeERKSB_(ptr noundef nonnull align 8 dereferenceable(8) %4) #20
  %6 = load ptr, ptr %5, align 8, !tbaa !20
  ret ptr %6
}

; Function Attrs: mustprogress nounwind uwtable
define linkonce_odr noundef ptr @_ZNKSt10unique_ptrIN3g2o7csparse7CSparse4ImplESt14default_deleteIS3_EE3getEv(ptr noundef nonnull align 8 dereferenceable(8) %0) #1 comdat align 2 {
  %2 = alloca ptr, align 8
  store ptr %0, ptr %2, align 8, !tbaa !16
  %3 = load ptr, ptr %2, align 8
  %4 = getelementptr inbounds nuw %"class.std::unique_ptr", ptr %3, i32 0, i32 0
  %5 = call noundef ptr @_ZNKSt15__uniq_ptr_implIN3g2o7csparse7CSparse4ImplESt14default_deleteIS3_EE6_M_ptrEv(ptr noundef nonnull align 8 dereferenceable(8) %4) #20
  ret ptr %5
}

; Function Attrs: mustprogress nounwind uwtable
define linkonce_odr noundef ptr @_ZNKSt10unique_ptrIN3g2o7csparse7CSparse4ImplESt14default_deleteIS3_EEptEv(ptr noundef nonnull align 8 dereferenceable(8) %0) #1 comdat align 2 {
  %2 = alloca ptr, align 8
  store ptr %0, ptr %2, align 8, !tbaa !16
  %3 = load ptr, ptr %2, align 8
  %4 = call noundef ptr @_ZNKSt10unique_ptrIN3g2o7csparse7CSparse4ImplESt14default_deleteIS3_EE3getEv(ptr noundef nonnull align 8 dereferenceable(8) %3) #20
  ret ptr %4
}

; Function Attrs: mustprogress uwtable
define void @_ZN3g2o7csparse7CSparse12freeSymbolicEv(ptr noundef nonnull align 8 dereferenceable(8) %0) #3 align 2 {
  %2 = alloca ptr, align 8
  store ptr %0, ptr %2, align 8, !tbaa !14
  %3 = load ptr, ptr %2, align 8
  %4 = getelementptr inbounds nuw %"class.g2o::csparse::CSparse", ptr %3, i32 0, i32 0
  %5 = call noundef ptr @_ZNKSt10unique_ptrIN3g2o7csparse7CSparse4ImplESt14default_deleteIS3_EEptEv(ptr noundef nonnull align 8 dereferenceable(8) %4) #20
  %6 = getelementptr inbounds nuw %"class.g2o::csparse::CSparse::Impl", ptr %5, i32 0, i32 0
  %7 = load ptr, ptr %6, align 8, !tbaa !72
  %8 = icmp ne ptr %7, null
  br i1 %8, label %9, label %18

9:                                                ; preds = %1
  %10 = getelementptr inbounds nuw %"class.g2o::csparse::CSparse", ptr %3, i32 0, i32 0
  %11 = call noundef ptr @_ZNKSt10unique_ptrIN3g2o7csparse7CSparse4ImplESt14default_deleteIS3_EEptEv(ptr noundef nonnull align 8 dereferenceable(8) %10) #20
  %12 = getelementptr inbounds nuw %"class.g2o::csparse::CSparse::Impl", ptr %11, i32 0, i32 0
  %13 = load ptr, ptr %12, align 8, !tbaa !72
  %14 = call ptr @cs_di_sfree(ptr noundef %13)
  %15 = getelementptr inbounds nuw %"class.g2o::csparse::CSparse", ptr %3, i32 0, i32 0
  %16 = call noundef ptr @_ZNKSt10unique_ptrIN3g2o7csparse7CSparse4ImplESt14default_deleteIS3_EEptEv(ptr noundef nonnull align 8 dereferenceable(8) %15) #20
  %17 = getelementptr inbounds nuw %"class.g2o::csparse::CSparse::Impl", ptr %16, i32 0, i32 0
  store ptr null, ptr %17, align 8, !tbaa !72
  br label %18

18:                                               ; preds = %9, %1
  ret void
}

; Function Attrs: mustprogress uwtable
define noundef zeroext i1 @_ZN3g2o7csparse7CSparse9analyze_pEPi(ptr noundef nonnull align 8 dereferenceable(8) %0, ptr noundef %1) #3 align 2 {
  %3 = alloca ptr, align 8
  %4 = alloca ptr, align 8
  %5 = alloca i32, align 4
  %6 = alloca ptr, align 8
  %7 = alloca ptr, align 8
  %8 = alloca ptr, align 8
  store ptr %0, ptr %3, align 8, !tbaa !14
  store ptr %1, ptr %4, align 8, !tbaa !46
  %9 = load ptr, ptr %3, align 8
  call void @_ZN3g2o7csparse7CSparse12freeSymbolicEv(ptr noundef nonnull align 8 dereferenceable(8) %9)
  %10 = call ptr @cs_di_calloc(i32 noundef 1, i64 noundef 64)
  %11 = getelementptr inbounds nuw %"class.g2o::csparse::CSparse", ptr %9, i32 0, i32 0
  %12 = call noundef ptr @_ZNKSt10unique_ptrIN3g2o7csparse7CSparse4ImplESt14default_deleteIS3_EEptEv(ptr noundef nonnull align 8 dereferenceable(8) %11) #20
  %13 = getelementptr inbounds nuw %"class.g2o::csparse::CSparse::Impl", ptr %12, i32 0, i32 0
  store ptr %10, ptr %13, align 8, !tbaa !72
  call void @llvm.lifetime.start.p0(i64 4, ptr %5) #20
  %14 = getelementptr inbounds nuw %"class.g2o::csparse::CSparse", ptr %9, i32 0, i32 0
  %15 = call noundef ptr @_ZNKSt10unique_ptrIN3g2o7csparse7CSparse4ImplESt14default_deleteIS3_EEptEv(ptr noundef nonnull align 8 dereferenceable(8) %14) #20
  %16 = getelementptr inbounds nuw %"class.g2o::csparse::CSparse::Impl", ptr %15, i32 0, i32 5
  %17 = getelementptr inbounds nuw %struct.cs_di_sparse, ptr %16, i32 0, i32 2
  %18 = load i32, ptr %17, align 8, !tbaa !44
  store i32 %18, ptr %5, align 4, !tbaa !39
  %19 = load ptr, ptr %4, align 8, !tbaa !46
  %20 = load i32, ptr %5, align 4, !tbaa !39
  %21 = call ptr @cs_di_pinv(ptr noundef %19, i32 noundef %20)
  %22 = getelementptr inbounds nuw %"class.g2o::csparse::CSparse", ptr %9, i32 0, i32 0
  %23 = call noundef ptr @_ZNKSt10unique_ptrIN3g2o7csparse7CSparse4ImplESt14default_deleteIS3_EEptEv(ptr noundef nonnull align 8 dereferenceable(8) %22) #20
  %24 = getelementptr inbounds nuw %"class.g2o::csparse::CSparse::Impl", ptr %23, i32 0, i32 0
  %25 = load ptr, ptr %24, align 8, !tbaa !72
  %26 = getelementptr inbounds nuw %struct.cs_di_symbolic, ptr %25, i32 0, i32 0
  store ptr %21, ptr %26, align 8, !tbaa !79
  call void @llvm.lifetime.start.p0(i64 8, ptr %6) #20
  %27 = getelementptr inbounds nuw %"class.g2o::csparse::CSparse", ptr %9, i32 0, i32 0
  %28 = call noundef ptr @_ZNKSt10unique_ptrIN3g2o7csparse7CSparse4ImplESt14default_deleteIS3_EEptEv(ptr noundef nonnull align 8 dereferenceable(8) %27) #20
  %29 = getelementptr inbounds nuw %"class.g2o::csparse::CSparse::Impl", ptr %28, i32 0, i32 5
  %30 = getelementptr inbounds nuw %"class.g2o::csparse::CSparse", ptr %9, i32 0, i32 0
  %31 = call noundef ptr @_ZNKSt10unique_ptrIN3g2o7csparse7CSparse4ImplESt14default_deleteIS3_EEptEv(ptr noundef nonnull align 8 dereferenceable(8) %30) #20
  %32 = getelementptr inbounds nuw %"class.g2o::csparse::CSparse::Impl", ptr %31, i32 0, i32 0
  %33 = load ptr, ptr %32, align 8, !tbaa !72
  %34 = getelementptr inbounds nuw %struct.cs_di_symbolic, ptr %33, i32 0, i32 0
  %35 = load ptr, ptr %34, align 8, !tbaa !79
  %36 = call ptr @cs_di_symperm(ptr noundef %29, ptr noundef %35, i32 noundef 0)
  store ptr %36, ptr %6, align 8, !tbaa !82
  %37 = load ptr, ptr %6, align 8, !tbaa !82
  %38 = call ptr @cs_di_etree(ptr noundef %37, i32 noundef 0)
  %39 = getelementptr inbounds nuw %"class.g2o::csparse::CSparse", ptr %9, i32 0, i32 0
  %40 = call noundef ptr @_ZNKSt10unique_ptrIN3g2o7csparse7CSparse4ImplESt14default_deleteIS3_EEptEv(ptr noundef nonnull align 8 dereferenceable(8) %39) #20
  %41 = getelementptr inbounds nuw %"class.g2o::csparse::CSparse::Impl", ptr %40, i32 0, i32 0
  %42 = load ptr, ptr %41, align 8, !tbaa !72
  %43 = getelementptr inbounds nuw %struct.cs_di_symbolic, ptr %42, i32 0, i32 2
  store ptr %38, ptr %43, align 8, !tbaa !83
  call void @llvm.lifetime.start.p0(i64 8, ptr %7) #20
  %44 = getelementptr inbounds nuw %"class.g2o::csparse::CSparse", ptr %9, i32 0, i32 0
  %45 = call noundef ptr @_ZNKSt10unique_ptrIN3g2o7csparse7CSparse4ImplESt14default_deleteIS3_EEptEv(ptr noundef nonnull align 8 dereferenceable(8) %44) #20
  %46 = getelementptr inbounds nuw %"class.g2o::csparse::CSparse::Impl", ptr %45, i32 0, i32 0
  %47 = load ptr, ptr %46, align 8, !tbaa !72
  %48 = getelementptr inbounds nuw %struct.cs_di_symbolic, ptr %47, i32 0, i32 2
  %49 = load ptr, ptr %48, align 8, !tbaa !83
  %50 = load i32, ptr %5, align 4, !tbaa !39
  %51 = call ptr @cs_di_post(ptr noundef %49, i32 noundef %50)
  store ptr %51, ptr %7, align 8, !tbaa !46
  call void @llvm.lifetime.start.p0(i64 8, ptr %8) #20
  %52 = load ptr, ptr %6, align 8, !tbaa !82
  %53 = getelementptr inbounds nuw %"class.g2o::csparse::CSparse", ptr %9, i32 0, i32 0
  %54 = call noundef ptr @_ZNKSt10unique_ptrIN3g2o7csparse7CSparse4ImplESt14default_deleteIS3_EEptEv(ptr noundef nonnull align 8 dereferenceable(8) %53) #20
  %55 = getelementptr inbounds nuw %"class.g2o::csparse::CSparse::Impl", ptr %54, i32 0, i32 0
  %56 = load ptr, ptr %55, align 8, !tbaa !72
  %57 = getelementptr inbounds nuw %struct.cs_di_symbolic, ptr %56, i32 0, i32 2
  %58 = load ptr, ptr %57, align 8, !tbaa !83
  %59 = load ptr, ptr %7, align 8, !tbaa !46
  %60 = call ptr @cs_di_counts(ptr noundef %52, ptr noundef %58, ptr noundef %59, i32 noundef 0)
  store ptr %60, ptr %8, align 8, !tbaa !46
  %61 = load ptr, ptr %7, align 8, !tbaa !46
  %62 = call ptr @cs_di_free(ptr noundef %61)
  %63 = load ptr, ptr %6, align 8, !tbaa !82
  %64 = call ptr @cs_di_spfree(ptr noundef %63)
  %65 = load i32, ptr %5, align 4, !tbaa !39
  %66 = add nsw i32 %65, 1
  %67 = call ptr @cs_di_malloc(i32 noundef %66, i64 noundef 4)
  %68 = getelementptr inbounds nuw %"class.g2o::csparse::CSparse", ptr %9, i32 0, i32 0
  %69 = call noundef ptr @_ZNKSt10unique_ptrIN3g2o7csparse7CSparse4ImplESt14default_deleteIS3_EEptEv(ptr noundef nonnull align 8 dereferenceable(8) %68) #20
  %70 = getelementptr inbounds nuw %"class.g2o::csparse::CSparse::Impl", ptr %69, i32 0, i32 0
  %71 = load ptr, ptr %70, align 8, !tbaa !72
  %72 = getelementptr inbounds nuw %struct.cs_di_symbolic, ptr %71, i32 0, i32 3
  store ptr %67, ptr %72, align 8, !tbaa !84
  %73 = getelementptr inbounds nuw %"class.g2o::csparse::CSparse", ptr %9, i32 0, i32 0
  %74 = call noundef ptr @_ZNKSt10unique_ptrIN3g2o7csparse7CSparse4ImplESt14default_deleteIS3_EEptEv(ptr noundef nonnull align 8 dereferenceable(8) %73) #20
  %75 = getelementptr inbounds nuw %"class.g2o::csparse::CSparse::Impl", ptr %74, i32 0, i32 0
  %76 = load ptr, ptr %75, align 8, !tbaa !72
  %77 = getelementptr inbounds nuw %struct.cs_di_symbolic, ptr %76, i32 0, i32 3
  %78 = load ptr, ptr %77, align 8, !tbaa !84
  %79 = load ptr, ptr %8, align 8, !tbaa !46
  %80 = load i32, ptr %5, align 4, !tbaa !39
  %81 = call double @cs_di_cumsum(ptr noundef %78, ptr noundef %79, i32 noundef %80)
  %82 = getelementptr inbounds nuw %"class.g2o::csparse::CSparse", ptr %9, i32 0, i32 0
  %83 = call noundef ptr @_ZNKSt10unique_ptrIN3g2o7csparse7CSparse4ImplESt14default_deleteIS3_EEptEv(ptr noundef nonnull align 8 dereferenceable(8) %82) #20
  %84 = getelementptr inbounds nuw %"class.g2o::csparse::CSparse::Impl", ptr %83, i32 0, i32 0
  %85 = load ptr, ptr %84, align 8, !tbaa !72
  %86 = getelementptr inbounds nuw %struct.cs_di_symbolic, ptr %85, i32 0, i32 6
  store double %81, ptr %86, align 8, !tbaa !85
  %87 = getelementptr inbounds nuw %"class.g2o::csparse::CSparse", ptr %9, i32 0, i32 0
  %88 = call noundef ptr @_ZNKSt10unique_ptrIN3g2o7csparse7CSparse4ImplESt14default_deleteIS3_EEptEv(ptr noundef nonnull align 8 dereferenceable(8) %87) #20
  %89 = getelementptr inbounds nuw %"class.g2o::csparse::CSparse::Impl", ptr %88, i32 0, i32 0
  %90 = load ptr, ptr %89, align 8, !tbaa !72
  %91 = getelementptr inbounds nuw %struct.cs_di_symbolic, ptr %90, i32 0, i32 7
  store double %81, ptr %91, align 8, !tbaa !86
  %92 = load ptr, ptr %8, align 8, !tbaa !46
  %93 = call ptr @cs_di_free(ptr noundef %92)
  %94 = getelementptr inbounds nuw %"class.g2o::csparse::CSparse", ptr %9, i32 0, i32 0
  %95 = call noundef ptr @_ZNKSt10unique_ptrIN3g2o7csparse7CSparse4ImplESt14default_deleteIS3_EEptEv(ptr noundef nonnull align 8 dereferenceable(8) %94) #20
  %96 = getelementptr inbounds nuw %"class.g2o::csparse::CSparse::Impl", ptr %95, i32 0, i32 0
  %97 = load ptr, ptr %96, align 8, !tbaa !72
  %98 = getelementptr inbounds nuw %struct.cs_di_symbolic, ptr %97, i32 0, i32 6
  %99 = load double, ptr %98, align 8, !tbaa !85
  %100 = fcmp olt double %99, 0.000000e+00
  br i1 %100, label %101, label %110

101:                                              ; preds = %2
  %102 = getelementptr inbounds nuw %"class.g2o::csparse::CSparse", ptr %9, i32 0, i32 0
  %103 = call noundef ptr @_ZNKSt10unique_ptrIN3g2o7csparse7CSparse4ImplESt14default_deleteIS3_EEptEv(ptr noundef nonnull align 8 dereferenceable(8) %102) #20
  %104 = getelementptr inbounds nuw %"class.g2o::csparse::CSparse::Impl", ptr %103, i32 0, i32 0
  %105 = load ptr, ptr %104, align 8, !tbaa !72
  %106 = call ptr @cs_di_sfree(ptr noundef %105)
  %107 = getelementptr inbounds nuw %"class.g2o::csparse::CSparse", ptr %9, i32 0, i32 0
  %108 = call noundef ptr @_ZNKSt10unique_ptrIN3g2o7csparse7CSparse4ImplESt14default_deleteIS3_EEptEv(ptr noundef nonnull align 8 dereferenceable(8) %107) #20
  %109 = getelementptr inbounds nuw %"class.g2o::csparse::CSparse::Impl", ptr %108, i32 0, i32 0
  store ptr null, ptr %109, align 8, !tbaa !72
  br label %110

110:                                              ; preds = %101, %2
  %111 = getelementptr inbounds nuw %"class.g2o::csparse::CSparse", ptr %9, i32 0, i32 0
  %112 = call noundef ptr @_ZNKSt10unique_ptrIN3g2o7csparse7CSparse4ImplESt14default_deleteIS3_EEptEv(ptr noundef nonnull align 8 dereferenceable(8) %111) #20
  %113 = getelementptr inbounds nuw %"class.g2o::csparse::CSparse::Impl", ptr %112, i32 0, i32 0
  %114 = load ptr, ptr %113, align 8, !tbaa !72
  %115 = icmp ne ptr %114, null
  call void @llvm.lifetime.end.p0(i64 8, ptr %8) #20
  call void @llvm.lifetime.end.p0(i64 8, ptr %7) #20
  call void @llvm.lifetime.end.p0(i64 8, ptr %6) #20
  call void @llvm.lifetime.end.p0(i64 4, ptr %5) #20
  ret i1 %115
}