; Function Attrs: mustprogress uwtable
define noundef zeroext i1 @_ZN3g2o7csparse7CSparse9analyze_pEPi(ptr noundef nonnull readonly align 8 captures(none) dereferenceable(8) %0, ptr noundef %1) local_unnamed_addr #0 align 2 {
  %3 = load ptr, ptr %0, align 8, !tbaa !14
  %4 = load ptr, ptr %3, align 8, !tbaa !52
  %.not.i = icmp eq ptr %4, null
  br i1 %.not.i, label %_ZN3g2o7csparse7CSparse12freeSymbolicEv.exit, label %5

5:                                                ; preds = %2
  %6 = tail call ptr @cs_di_sfree(ptr noundef nonnull %4)
  %7 = load ptr, ptr %0, align 8, !tbaa !14
  store ptr null, ptr %7, align 8, !tbaa !52
  br label %_ZN3g2o7csparse7CSparse12freeSymbolicEv.exit

_ZN3g2o7csparse7CSparse12freeSymbolicEv.exit:     ; preds = %2, %5
  %8 = tail call ptr @cs_di_calloc(i32 noundef 1, i64 noundef 64)
  %9 = load ptr, ptr %0, align 8, !tbaa !14
  store ptr %8, ptr %9, align 8, !tbaa !52
  %10 = getelementptr inbounds nuw i8, ptr %9, i64 48
  %11 = load i32, ptr %10, align 8, !tbaa !30
  %12 = tail call ptr @cs_di_pinv(ptr noundef %1, i32 noundef %11)
  %13 = load ptr, ptr %0, align 8, !tbaa !14
  %14 = load ptr, ptr %13, align 8, !tbaa !52
  store ptr %12, ptr %14, align 8, !tbaa !56
  %15 = getelementptr inbounds nuw i8, ptr %13, i64 40
  %16 = tail call ptr @cs_di_symperm(ptr noundef nonnull %15, ptr noundef %12, i32 noundef 0)
  %17 = tail call ptr @cs_di_etree(ptr noundef %16, i32 noundef 0)
  %18 = load ptr, ptr %0, align 8, !tbaa !14
  %19 = load ptr, ptr %18, align 8, !tbaa !52
  %20 = getelementptr inbounds nuw i8, ptr %19, i64 16
  store ptr %17, ptr %20, align 8, !tbaa !59
  %21 = tail call ptr @cs_di_post(ptr noundef %17, i32 noundef %11)
  %22 = load ptr, ptr %0, align 8, !tbaa !14
  %23 = load ptr, ptr %22, align 8, !tbaa !52
  %24 = getelementptr inbounds nuw i8, ptr %23, i64 16
  %25 = load ptr, ptr %24, align 8, !tbaa !59
  %26 = tail call ptr @cs_di_counts(ptr noundef %16, ptr noundef %25, ptr noundef %21, i32 noundef 0)
  %27 = tail call ptr @cs_di_free(ptr noundef %21)
  %28 = tail call ptr @cs_di_spfree(ptr noundef %16)
  %29 = add nsw i32 %11, 1
  %30 = tail call ptr @cs_di_malloc(i32 noundef %29, i64 noundef 4)
  %31 = load ptr, ptr %0, align 8, !tbaa !14
  %32 = load ptr, ptr %31, align 8, !tbaa !52
  %33 = getelementptr inbounds nuw i8, ptr %32, i64 24
  store ptr %30, ptr %33, align 8, !tbaa !60
  %34 = tail call double @cs_di_cumsum(ptr noundef %30, ptr noundef %26, i32 noundef %11)
  %35 = load ptr, ptr %0, align 8, !tbaa !14
  %36 = load ptr, ptr %35, align 8, !tbaa !52
  %37 = getelementptr inbounds nuw i8, ptr %36, i64 48
  store double %34, ptr %37, align 8, !tbaa !61
  %38 = getelementptr inbounds nuw i8, ptr %36, i64 56
  store double %34, ptr %38, align 8, !tbaa !62
  %39 = tail call ptr @cs_di_free(ptr noundef %26)
  %40 = load ptr, ptr %0, align 8, !tbaa !14
  %41 = load ptr, ptr %40, align 8, !tbaa !52
  %42 = getelementptr inbounds nuw i8, ptr %41, i64 48
  %43 = load double, ptr %42, align 8, !tbaa !61
  %44 = fcmp olt double %43, 0.000000e+00
  br i1 %44, label %45, label %48

45:                                               ; preds = %_ZN3g2o7csparse7CSparse12freeSymbolicEv.exit
  %46 = tail call ptr @cs_di_sfree(ptr noundef nonnull %41)
  %47 = load ptr, ptr %0, align 8, !tbaa !14
  store ptr null, ptr %47, align 8, !tbaa !52
  br label %48

48:                                               ; preds = %45, %_ZN3g2o7csparse7CSparse12freeSymbolicEv.exit
  %49 = phi ptr [ null, %45 ], [ %41, %_ZN3g2o7csparse7CSparse12freeSymbolicEv.exit ]
  %50 = icmp ne ptr %49, null
  ret i1 %50
}